Certificate:
    Data:
        Version: 3 (0x2)
        Serial Number:
            7f:21:54:93:e7:e4:05:73:6a:56:bd:d5:cb:aa:48:f1:6b:28:8a:53
        Signature Algorithm: ecdsa-with-SHA256
        Issuer: C=NO, ST=Tronderlag, L=Trondheim, O=NordicSemi, OU=Academy, CN=RootCA
        Validity
            Not Before: Sep 12 14:26:11 2024 GMT
            Not After : Jul  3 14:26:11 2027 GMT
        Subject: C=NO, ST=Tronderlag, L=Trondheim, O=NordicSemi, OU=Academy, CN=RootCA
        Subject Public Key Info:
            Public Key Algorithm: id-ecPublicKey
                Public-Key: (384 bit)
                pub:
                    04:78:1d:47:d9:4a:48:b2:fa:70:5d:c0:4b:fd:c0:
                    eb:71:ec:c6:74:12:4d:78:f2:b1:62:7d:3d:3e:f4:
                    e5:f7:6d:3b:0c:7b:f3:39:45:77:53:30:6b:dd:24:
                    69:7d:ec:c1:d3:b0:67:3f:73:e4:54:68:d1:af:a3:
                    11:3c:c2:30:6e:c7:7a:7d:fc:64:4e:57:6f:03:7d:
                    7d:70:3c:9c:e9:ee:13:9a:46:d9:6a:8a:36:64:0f:
                    9c:08:5f:da:a1:c9:10
                ASN1 OID: secp384r1
                NIST CURVE: P-384
        X509v3 extensions:
            X509v3 Subject Key Identifier:
                0D:2D:71:9B:C5:12:40:EF:A2:63:1C:AA:2D:12:A8:76:22:9D:83:E9
            X509v3 Authority Key Identifier:
                0D:2D:71:9B:C5:12:40:EF:A2:63:1C:AA:2D:12:A8:76:22:9D:83:E9
            X509v3 Basic Constraints: critical
                CA:TRUE
    Signature Algorithm: ecdsa-with-SHA256
    Signature Value:
        30:65:02:31:00:e2:c9:5b:f5:b3:cd:0d:80:8b:31:22:c2:b4:
        54:cb:89:e0:af:26:22:af:b7:13:cf:4e:7b:ff:57:47:96:19:
        20:53:66:22:23:f1:9b:2c:c3:ed:fa:77:32:c7:2d:f2:d9:02:
        30:19:ca:3d:0a:77:e9:4e:f1:84:19:ed:22:7e:87:79:f8:f3:
        db:b3:fb:0c:3d:44:c5:2d:a5:95:97:4a:9f:21:3b:4b:ea:08:
        17:1e:da:d9:0b:ad:25:95:cc:61:67:10:86

-----BEGIN CERTIFICATE-----
MIICbjCCAfSgAwIBAgIUfyFUk+fkBXNqVr3Vy6pI8WsoilMwCgYIKoZIzj0EAwIw
bjELMAkGA1UEBhMCTk8xEzARBgNVBAgMClRyb25kZXJsYWcxEjAQBgNVBAcMCVRy
b25kaGVpbTETMBEGA1UECgwKTm9yZGljU2VtaTEQMA4GA1UECwwHQWNhZGVteTEP
MA0GA1UEAwwGUm9vdENBMB4XDTI0MDkxMjE0MjYxMVoXDTI3MDcwMzE0MjYxMVow
bjELMAkGA1UEBhMCTk8xEzARBgNVBAgMClRyb25kZXJsYWcxEjAQBgNVBAcMCVRy
b25kaGVpbTETMBEGA1UECgwKTm9yZGljU2VtaTEQMA4GA1UECwwHQWNhZGVteTEP
MA0GA1UEAwwGUm9vdENBMHYwEAYHKoZIzj0CAQYFK4EEACIDYgAEeB1H2UpIsvpw
XcBL/cDrcezGdBJNePKxYn09PvTl9207DHvzOUV3UzBr3SRpfezB07BnP3PkVGjR
r6MRPMIwbsd6ffxkTldvA319cDyc6e4TmkbZaoo2ZA+cCF/aockQo1MwUTAdBgNV
HQ4EFgQUDS1xm8USQO+iYxyqLRKodiKdg+kwHwYDVR0jBBgwFoAUDS1xm8USQO+i
YxyqLRKodiKdg+kwDwYDVR0TAQH/BAUwAwEB/zAKBggqhkjOPQQDAgNoADBlAjEA
4slb9bPNDYCLMSLCtFTLieCvJiKvtxPPTnv/V0eWGSBTZiIj8Zssw+36dzLHLfLZ
AjAZyj0Kd+lO8YQZ7SJ+h3n489uz+ww9RMUtpZWXSp8hO0vqCBce2tkLrSWVzGFn
EIY=
-----END CERTIFICATE-----
